target datalayout = "e-m:e-p270:32:32-p271:32:32-p272:64:64-i64:64-i128:128-f80:128-n8:16:32:64-S128"
target triple = "x86_64-unknown-linux-gnu"

%"class.std::__cxx11::basic_string" = type { %"struct.std::__cxx11::basic_string<char>::_Alloc_hider", i64, %union.anon }
%"struct.std::__cxx11::basic_string<char>::_Alloc_hider" = type { ptr }
%union.anon = type { i64, [8 x i8] }
%struct.Options = type { i8, %"class.std::__cxx11::basic_string", ptr }
%"class.struct_pb::compiler::FieldGenerator" = type { ptr, %"class.struct_pb::compiler::GeneratorBase", ptr }
%"class.struct_pb::compiler::GeneratorBase" = type { %struct.Options }
%"class.google::protobuf::FieldDescriptor" = type { ptr, ptr, ptr, ptr, ptr, ptr, ptr, i32, i32, i8, i8, i8, i8, i32, i32, ptr, ptr, ptr, ptr, ptr, ptr, ptr, ptr, %union.anon.3 }
%union.anon.3 = type { i64 }

; Function Attrs: mustprogress nounwind uwtable
define linkonce_odr dso_local noundef i32 @_ZNK6google8protobuf15FieldDescriptor6numberEv(ptr noundef nonnull align 8 dereferenceable(152) %this) #5 comdat align 2 {
entry:
  %this.addr = alloca ptr, align 8
  store ptr %this, ptr %this.addr, align 8
  %this1 = load ptr, ptr %this.addr, align 8
  %number_ = getelementptr inbounds %"class.google::protobuf::FieldDescriptor", ptr %this1, i32 0, i32 13
  %0 = load i32, ptr %number_, align 4
  ret i32 %0
}

; Function Attrs: mustprogress uwtable
define dso_local void @_ZNK9struct_pb8compiler31RepeatedPrimitiveFieldGenerator12unpacked_tagB5cxx11Ev(ptr noalias sret(%"class.std::__cxx11::basic_string") align 8 %agg.result, ptr noundef nonnull align 8 dereferenceable(64) %this) #4 align 2 {
entry:
  %result.ptr = alloca ptr, align 8
  %this.addr = alloca ptr, align 8
  %number = alloca i32, align 4
  %wire_type = alloca i32, align 4
  %tag = alloca i32, align 4
  store ptr %agg.result, ptr %result.ptr, align 8
  store ptr %this, ptr %this.addr, align 8
  %this1 = load ptr, ptr %this.addr, align 8
  %d_ = getelementptr inbounds %"class.struct_pb::compiler::FieldGenerator", ptr %this1, i32 0, i32 2
  %0 = load ptr, ptr %d_, align 8
  %call = call noundef i32 @_ZNK6google8protobuf15FieldDescriptor6numberEv(ptr noundef nonnull align 8 dereferenceable(152) %0)
  store i32 %call, ptr %number, align 4
  store i32 0, ptr %wire_type, align 4
  %d_2 = getelementptr inbounds %"class.struct_pb::compiler::FieldGenerator", ptr %this1, i32 0, i32 2
  %1 = load ptr, ptr %d_2, align 8
  %call3 = call noundef zeroext i1 @_ZN9struct_pb8compiler9is_varintEPKN6google8protobuf15FieldDescriptorE(ptr noundef %1)
  br i1 %call3, label %if.then, label %if.else

if.then:                                          ; preds = %entry
  store i32 0, ptr %wire_type, align 4
  br label %if.end12

if.else:                                          ; preds = %entry
  %d_4 = getelementptr inbounds %"class.struct_pb::compiler::FieldGenerator", ptr %this1, i32 0, i32 2
  %2 = load ptr, ptr %d_4, align 8
  %call5 = call noundef zeroext i1 @_ZN9struct_pb8compiler6is_i64EPKN6google8protobuf15FieldDescriptorE(ptr noundef %2)
  br i1 %call5, label %if.then6, label %if.else7

if.then6:                                         ; preds = %if.else
  store i32 1, ptr %wire_type, align 4
  br label %if.end11

if.else7:                                         ; preds = %if.else
  %d_8 = getelementptr inbounds %"class.struct_pb::compiler::FieldGenerator", ptr %this1, i32 0, i32 2
  %3 = load ptr, ptr %d_8, align 8
  %call9 = call noundef zeroext i1 @_ZN9struct_pb8compiler6is_i32EPKN6google8protobuf15FieldDescriptorE(ptr noundef %3)
  br i1 %call9, label %if.then10, label %if.end

if.then10:                                        ; preds = %if.else7
  store i32 5, ptr %wire_type, align 4
  br label %if.end

if.end:                                           ; preds = %if.then10, %if.else7
  br label %if.end11

if.end11:                                         ; preds = %if.end, %if.then6
  br label %if.end12

if.end12:                                         ; preds = %if.end11, %if.then
  %4 = load i32, ptr %number, align 4
  %shl = shl i32 %4, 3
  %5 = load i32, ptr %wire_type, align 4
  %or = or i32 %shl, %5
  store i32 %or, ptr %tag, align 4
  %6 = load i32, ptr %tag, align 4
  call void @_ZNSt7__cxx119to_stringEj(ptr sret(%"class.std::__cxx11::basic_string") align 8 %agg.result, i32 noundef %6) #3
  ret void
}