; Function Attrs: mustprogress uwtable
define dso_local void @_ZNK9struct_pb8compiler31RepeatedPrimitiveFieldGenerator12unpacked_tagB5cxx11Ev(ptr noalias sret(%"class.std::__cxx11::basic_string") align 8 %agg.result, ptr nocapture noundef nonnull readonly align 8 dereferenceable(64) %this) local_unnamed_addr #3 align 2 {
entry:
  %d_ = getelementptr inbounds i8, ptr %this, i64 56
  %0 = load ptr, ptr %d_, align 8
  %number_.i = getelementptr inbounds i8, ptr %0, i64 68
  %1 = load i32, ptr %number_.i, align 4
  %call3 = tail call noundef zeroext i1 @_ZN9struct_pb8compiler9is_varintEPKN6google8protobuf15FieldDescriptorE(ptr noundef %0)
  br i1 %call3, label %if.end12, label %if.else

if.else:                                          ; preds = %entry
  %2 = load ptr, ptr %d_, align 8
  %call5 = tail call noundef zeroext i1 @_ZN9struct_pb8compiler6is_i64EPKN6google8protobuf15FieldDescriptorE(ptr noundef %2)
  br i1 %call5, label %if.end12, label %if.else7

if.else7:                                         ; preds = %if.else
  %3 = load ptr, ptr %d_, align 8
  %call9 = tail call noundef zeroext i1 @_ZN9struct_pb8compiler6is_i32EPKN6google8protobuf15FieldDescriptorE(ptr noundef %3)
  %spec.select = select i1 %call9, i32 5, i32 0
  br label %if.end12

if.end12:                                         ; preds = %if.else7, %if.else, %entry
  %wire_type.0 = phi i32 [ 0, %entry ], [ 1, %if.else ], [ %spec.select, %if.else7 ]
  %shl = shl i32 %1, 3
  %or = or disjoint i32 %wire_type.0, %shl
  tail call void @_ZNSt7__cxx119to_stringEj(ptr sret(%"class.std::__cxx11::basic_string") align 8 %agg.result, i32 noundef %or) #18
  ret void
}